(dp1
I0
(lp2
S'http://www.breitbart.com/big-government/2017/03/10/virgil-environmental-protection-agency-next-stop-guided-tour-deep-states-covert-resistance-trump/'
p3
aS'http://www.breitbart.com/big-journalism/2017/03/10/nate-silver-there-really-was-a-liberal-media-bubble'
p4
aS'http://www.breitbart.com/jerusalem/2017/03/06/rabbi-shmuley-midnight-joshuas-tomb-idf/'
p5
aS'http://www.dailymail.co.uk/news/article-4041542/Duke-Duchess-Cambridge-spend-private-Christmas-Middleton-family-joining-Queen-Sandringham.html'
p6
aS'http://www.dailymail.co.uk/news/article-4041424/It-s-Michael-CATson-Beloved-pet-Scrappy-turns-black-white-diagnosed-similar-skin-pigment-disorder-King-Pop.html'
p7
aS'http://www.dailymail.co.uk/tvshowbiz/article-4060958/Has-sherry-Kate-Garraway-accused-DRUNK-GMB-spilling-glass-water-fluffing-lines-speaking-guests.html'
p8
aS'http://www.dailymail.co.uk/debate/article-1278510/Depression-Its-just-new-trendy-illness.html'
p9
aS'http://www.dailymail.co.uk/debate/article-1220756/A-strange-lonely-troubling-death--.html'
p10
aS'http://www.dailymail.co.uk/debate/article-1224858/Yes-scientists-good-But-country-run-arrogant-gods-certainty-truly-hell-earth.html'
p11
aS'http://www.dailymail.co.uk/femail/article-3982918/A-charming-story-UK-s-popular-jewellery-brand-Pandora-went-small-family-business-11-5-BILLION-empire-celebs-t-it.html'
p12
aS'https://www.psychologytoday.com/blog/sex-murder-and-the-meaning-life/201612/does-trump-s-election-disprove-the-existence-god'
p13
aS'https://www.marxists.org/reference/subject/philosophy/works/fr/derrida.htm'
p14
aS'https://www.marxists.org/reference/subject/philosophy/works/ge/heidegge.htm'
p15
aS'http://www.whatchristianswanttoknow.com/20-inspirational-bible-verses-about-gods-love/'
p16
aS'http://www.foxnews.com/politics/2012/02/18/santorum-questions-obamas-christian-values-romneys-olympics-leadership.html'
p17
aS'http://www.foxnews.com/entertainment/2016/12/23/florida-beauty-pageant-winner-arrested-for-allegedly-beating-man-with-aluminum-baseball-bat.html'
p18
aS'http://www.ynetnews.com/articles/0,7340,L-4889175,00.html'
p19
aS'http://www.ynetnews.com/articles/0,7340,L-4895886,00.html'
p20
aS'https://www.thesun.co.uk/tvandshowbiz/2419251/strictly-come-dancing-dancer-gorka-marquez-fiancee-lauren-sheridan-split-blackpool-attack/'
p21
aS'https://www.thesun.co.uk/tvandshowbiz/2463681/katie-price-says-shell-take-legal-action-against-hotel-that-ejected-her-after-theft-of-100k-diamonds/'
p22
aS'https://www.thesun.co.uk/living/2510773/ill-help-you-kick-worlds-most-dangerous-drug-sugar-says-top-hypnotist-paul-mckenna/'
p23
aS'https://www.thesun.co.uk/tvandshowbiz/2780949/we-take-a-first-glimpse-at-fifty-shades-darker-which-is-far-kinkier-than-the-original-and-almost-pornographic-at-times/'
p24
aS'http://www.creationism.org/english/marriage_en.htm'
p25
aS'http://liveanddare.com/contemplative-prayer-and-christian-meditation'
p26
aS'http://www.bodybuilding.com/content/layne-nortons-hard-truths-of-training-and-nutrition.html'
p27
aS'http://www.bodybuilding.com/content/6-biggest-blunders-to-avoid-while-trying-to-add-mass-offseason.html'
p28
aS'http://www.cracked.com/blog/4-ridiculously-underrated-movies-from-2016/'
p29
aS'http://www.cracked.com/article_20953_5-horrifying-ways-ex-can-ruin-your-life-with-nude-photos.html'
p30
aS'http://www.cracked.com/blog/5-things-every-snob-believes-that-are-totally-wrong/'
p31
aS'http://www.cracked.com/article_24442_6-hilariously-random-things-people-once-used-as-money.html'
p32
aS'http://www.cracked.com/blog/6-harsh-truths-that-will-make-you-better-person/'
p33
aS'http://www.cracked.com/blog/analyzing-pros-cons-trump-winning-election/'
p34
aS'http://www.cracked.com/blog/cracked-says-goodbye-to-vine/'
p35
aS'http://www.cracked.com/blog/the-upside-to-2016-musical-revolution-near/'
p36
aS'https://www.yahoo.com/celebrity/23-major-kardashian-jenner-moments-in-2016-013028622.html'
p37
aS'http://www.spiritualresearchfoundation.org/hair-down'
p38
aS'http://www.jack-donovan.com/axis/2011/03/violence-is-golden/'
p39
aS'http://www.jack-donovan.com/axis/2011/12/mighty-white/'
p40
aS'http://www.jack-donovan.com/axis/2012/05/vote-with-your-ass/'
p41
aS'http://awdude.com/happy-big-sexy-valentines-day/'
p42
aS'http://awdude.com/thank-celebrities-teaching-think/'
p43
aS'http://awdude.com/ways-resisting-delusional-left/'
p44
aS'http://awdude.com/will-conservatives-quit-supporting-leftist-tv-netorks-social-media/'
p45
aS'http://awdude.com/ayatollah-spikes-football-on-obamas-face/'
p46
aS'http://awdude.com/google-will-now-filter-internet-hate-speech/'
p47
asI1
(lp48
S'http://www.newyorker.com/magazine/2008/04/21/up-and-then-down'
p49
aS'http://www.newyorker.com/magazine/2013/02/04/life-at-the-top'
p50
aS'http://www.newyorker.com/magazine/2016/08/22/the-race-for-a-zika-vaccine'
p51
aS'http://www.newyorker.com/magazine/2016/06/27/lee-berger-digs-for-bones-and-glory'
p52
aS'http://www.newyorker.com/magazine/2016/11/28/obama-reckons-with-a-trump-presidency'
p53
aS'http://www.newyorker.com/magazine/2007/04/16/the-interpreter-2'
p54
aS'http://www.newyorker.com/news/news-desk/an-american-tragedy-2'
p55
aS'http://www.newyorker.com/magazine/2016/08/29/deutsche-banks-10-billion-scandal'
p56
aS'http://www.newyorker.com/books/page-turner/nabokovs-america'
p57
aS'http://www.newyorker.com/books/page-turner/w-g-sebald-and-the-emigrants'
p58
aS'http://www.newyorker.com/magazine/2016/09/05/yuja-wang-and-the-art-of-performance'
p59
aS'http://www.newyorker.com/magazine/2016/09/26/a-decade-lived-in-the-dark'
p60
aS'http://www.newyorker.com/magazine/2016/10/31/trolls-for-trump'
p61
aS'http://www.newyorker.com/magazine/2016/11/07/the-case-against-democracy'
p62
aS'http://www.newyorker.com/magazine/2015/07/20/the-really-big-one'
p63
aS'http://www.newyorker.com/magazine/2011/08/08/the-answer-man-stephen-greenblatt'
p64
aS'http://www.newyorker.com/magazine/2016/12/19/our-automated-future'
p65
aS'http://www.newyorker.com/magazine/2016/02/29/mr-money-mustache-the-frugal-guru'
p66
aS'http://www.newyorker.com/culture/cultural-comment/searching-for-transcendence-with-radiohead'
p67
aS'http://www.newyorker.com/culture/cultural-comment/the-unmasking-of-elena-ferrante'
p68
aS'http://www.newyorker.com/magazine/2017/01/02/rewriting-the-code-of-life'
p69
aS'http://www.newyorker.com/magazine/2017/01/16/how-albert-woodfox-survived-solitary'
p70
aS'http://www.newyorker.com/magazine/2015/12/07/the-refugee-dilemma'
p71
aS'http://www.newyorker.com/magazine/2015/02/02/son-deceased'
p72
aS'http://www.newyorker.com/magazine/2014/07/21/wrong-answer'
p73
aS'http://www.newyorker.com/magazine/2017/02/13/when-things-go-missing'
p74
aS'http://www.newyorker.com/magazine/2016/06/06/zarif-khans-tamales-and-the-muslims-of-sheridan-wyoming'
p75
aS'http://www.newyorker.com/culture/culture-desk/the-cost-of-defying-the-president'
p76
aS'http://www.newyorker.com/magazine/2014/11/17/one-state-reality'
p77
aS'http://www.newyorker.com/magazine/2003/10/06/the-challenge-gabriel-garcia-marquez'
p78
aS'http://www.newyorker.com/magazine/2017/03/06/trump-putin-and-the-new-cold-war'
p79
aS'http://www.newyorker.com/tech/elements/what-do-you-call-the-last-of-a-species'
p80
aS'http://www.newyorker.com/magazine/2017/03/13/the-underground-railroad-for-refugees'
p81
aS'http://www.newyorker.com/magazine/2013/08/26/whats-wrong-with-me'
p82
aS'http://www.newyorker.com/magazine/2017/04/10/death-of-a-dystopian'
p83
aS'http://www.newyorker.com/magazine/2017/04/03/ai-versus-md'
p84
aS'http://www.newyorker.com/magazine/2004/12/13/mysterious-circumstances'
p85
aS'http://www.newyorker.com/magazine/2011/04/04/a-murder-foretold'
p86
aS'http://www.newyorker.com/magazine/2014/06/30/stepping-out-3'
p87
aS'http://www.newyorker.com/magazine/2017/04/24/polar-expressed'
p88
aS'http://www.newyorker.com/magazine/2013/10/28/now-we-are-five'
p89
aS'http://www.newyorker.com/magazine/2008/05/05/letting-go'
p90
aS'http://www.newyorker.com/culture/culture-desk/untamed-animal-friends'
p91
aS'http://www.newyorker.com/magazine/2010/04/19/the-ice-balloon'
p92
aS'http://www.newyorker.com/magazine/2013/12/16/the-lost-world-2'
p93
aS'http://www.newyorker.com/magazine/2014/05/05/prescription-for-disaster'
p94
aS'http://www.newyorker.com/news/news-desk/the-end-of-this-road-the-decline-of-the-palestinian-national-movement'
p95
aS'http://www.newyorker.com/magazine/2017/01/30/quarantine-by-alex-ohlin'
p96
aS'http://www.newyorker.com/magazine/2017/01/16/chairman-spaceman'
p97
aS'http://www.newyorker.com/magazine/2017/01/09/on-the-street-where-you-live'
p98
aS'http://www.newyorker.com/magazine/2004/03/22/passion-8'
p99
aS'http://www.newyorker.com/magazine/2009/04/13/the-color-of-shadows'
p100
aS'http://www.newyorker.com/magazine/2017/06/05/clean-cleaner-cleanest'
p101
aS'http://www.nybooks.com/articles/2016/05/26/our-awful-prisons-how-they-can-be-changed/'
p102
aS'http://www.nybooks.com/articles/2015/12/03/satan-salem/'
p103
aS'http://www.nybooks.com/articles/2016/08/18/mystery-of-hieronymus-bosch/'
p104
aS'http://www.nybooks.com/articles/2016/09/29/hobbes-spinoza-locke-leibniz-hume-wrestled-new/'
p105
aS'http://www.nybooks.com/daily/2017/07/01/iraq-the-battle-to-come/'
p106
aS'http://www.nybooks.com/articles/2017/06/22/israels-irrational-rationality/'
p107
aS'http://www.nybooks.com/articles/2017/08/17/henry-david-thoreau-true-american/'
p108
aS'https://www.nytimes.com/2017/02/24/style/modern-love-when-your-greatest-romance-is-friendship.html'
p109
aS'https://www.nytimes.com/2017/02/08/magazine/the-preacher-and-the-sheriff.html'
p110
aS'http://www.3ammagazine.com/3am/leiter-reports/'
p111
aS'http://www.theatlantic.com/education/archive/2016/08/across-the-border-and-into-school/496652/'
p112
aS'http://foreignpolicy.com/2016/11/10/the-dance-of-the-dunces-trump-clinton-election-republican-democrat/'
p113
aS'https://www.scientificamerican.com/article/darwins-influence-on-modern-thought/'
p114
aS'https://plato.stanford.edu/entries/self-reference/'
p115
aS'https://plato.stanford.edu/entries/truth/'
p116
aS'https://plato.stanford.edu/entries/reference/'
p117
as.